
program.elf:     file format elf32-tradlittlemips

SYMBOL TABLE:
9fc00000 l    d  .bootrom	00000000 .bootrom
80000000 l    d  .exception_vector	00000000 .exception_vector
80000200 l    d  .text	00000000 .text
00000000 l    d  .debug_aranges	00000000 .debug_aranges
00000000 l    d  .debug_info	00000000 .debug_info
00000000 l    d  .debug_abbrev	00000000 .debug_abbrev
00000000 l    d  .debug_line	00000000 .debug_line
00000000 l    d  .pdr	00000000 .pdr
00000000 l    d  .gnu.attributes	00000000 .gnu.attributes
00000000 l    df *ABS*	00000000 boot.o
9fc00004 l       .bootrom	00000000 init_cp0
9fc00018 l       .bootrom	00000000 init_tlb
9fc00060 l       .bootrom	00000000 init_icache
9fc00044 l       .bootrom	00000000 next_tlb_entry
9fc000ac l       .bootrom	00000000 done_icache
9fc0009c l       .bootrom	00000000 next_icache_tag
9fc000ac l       .bootrom	00000000 enable_k0_cache
9fc000cc l       .bootrom	00000000 init_dcache
9fc0011c l       .bootrom	00000000 done_dcache
9fc0010c l       .bootrom	00000000 next_dcache_tag
9fc0013c l       .bootrom	00000000 all_done
00000000 l    df *ABS*	00000000 exceptions.o
80000000 l       .exception_vector	00000000 __tlb_refill_loop
80000080 l       .exception_vector	00000000 __xtlb_refill_loop
80000100 l       .exception_vector	00000000 __cache_error_loop
80000180 l       .exception_vector	00000000 __general_exception_loop
00000000 l    df *ABS*	00000000 main.o
bf700000 l       *ABS*	00000000 PORT_SEVENSEG_EN
bf700004 l       *ABS*	00000000 PORT_SEVENSEG_HGH
bf700008 l       *ABS*	00000000 PORT_SEVENSEG_LOW
bf70000c l       *ABS*	00000000 PORT_SEVENSEG_DP
bf800008 l       *ABS*	00000000 BUTTONS_ADDR
bf800000 l       *ABS*	00000000 LEDS_ADDR
bf800014 l       *ABS*	00000000 PORT_BOTCTRL
bf80000c l       *ABS*	00000000 PORT_BOTINFO
bf800010 l       *ABS*	00000000 PORT_BOTUPDATE
bf800018 l       *ABS*	00000000 PORT_BOTACK
00000700 l       *ABS*	00000000 BLACKLINE_MSK
00000007 l       *ABS*	00000000 ORIENT_MSK
ff000000 l       *ABS*	00000000 LOC_X_MSK
00ff0000 l       *ABS*	00000000 LOC_Y_MSK
00000033 l       *ABS*	00000000 FORWARD_CNT
00000022 l       *ABS*	00000000 REVERSE_CNT
00000003 l       *ABS*	00000000 LEFT_CNT
00000030 l       *ABS*	00000000 RIGHT_CNT
00000000 l       *ABS*	00000000 IDLE_CNT
00000023 l       *ABS*	00000000 FAST_LEFT_CNT
00000032 l       *ABS*	00000000 FAST_RIGHT_CNT
800005cc l       .text	00000000 getBotInfoandDisplay
800003e8 l       .text	00000000 statemachineoutput
80000274 l       .text	00000000 updatelooplogic
80000298 l       .text	00000000 nextstatelogic
800002d8 l       .text	00000000 forwardnextlabel
800002f0 l       .text	00000000 rightturnnextlabel
80000344 l       .text	00000000 reversenextlabel
80000364 l       .text	00000000 forwardnot180nextlabel
8000035c l       .text	00000000 forwardnot180nextset
800003d0 l       .text	00000000 nextstatereverse
80000310 l       .text	00000000 checkorientdiff0
80000320 l       .text	00000000 checkorientdiffneg180
80000334 l       .text	00000000 checkorientdifflastforward180
800003e0 l       .text	00000000 nextstateforwardnot180set
800003c8 l       .text	00000000 rightturnnext
800003d8 l       .text	00000000 nextstateforwardnot180
8000037c l       .text	00000000 checkpostionchange
800003c0 l       .text	00000000 nextstateforward
800003a0 l       .text	00000000 checkpositionchange2
80000428 l       .text	00000000 forwardoutlabel
80000438 l       .text	00000000 rightturnoutlabel
80000444 l       .text	00000000 reverseoutlabel
80000450 l       .text	00000000 forwardnot180outlabel
8000045c l       .text	00000000 forwardnot180outsetlabel
8000048c l       .text	00000000 statemachineoutputdone
80000498 l       .text	00000000 getOrientation
800004fc l       .text	00000000 setorient0
80000510 l       .text	00000000 setorient45
80000524 l       .text	00000000 setorient90
80000538 l       .text	00000000 setorient135
8000054c l       .text	00000000 setorient180
80000560 l       .text	00000000 setorient225
80000574 l       .text	00000000 setorient270
80000588 l       .text	00000000 setorient315
8000059c l       .text	00000000 endgetOrientation
800005a4 l       .text	00000000 displayOrientation
80000200  w    F .text	00000000 __exception_handle_verbose
800005f0 g       .text	00000000 _etext
80008610 g       *ABS*	00000000 _gp
00000020 g       *ABS*	00000000 __isr_vec_space
00000000 g       *ABS*	00000000 __DYNAMIC
00000001 g       *ABS*	00000000 __use_excpt_boot
00000000  w      *UND*	00000000 _mips_xtlb_refill
80000200  w    F .text	00000000 __register_excpt_boot
80000200  w    F .text	00000000 __register_excpt_handler
80000000 g       *ABS*	00000000 __app_start
80000000 g       *ABS*	00000000 __flash_app_start
80000200 g       .text	00000000 _ftext
9fc00144 g     F .bootrom	0000006c _start
80000000 g       *ABS*	00000000 __excpt_ebase
80000204 g     O .text	00000000 main
80000200 g     F .text	00000000 __exception_handle
bfc00000 g       *ABS*	00000000 __entry
80000200  w    F .text	00000004 __getargs
00000000  w      *UND*	00000000 _mips_general_exception
00000000  w      *UND*	00000000 _mips_tlb_refill
00000000  w      *UND*	00000000 _mips_cache_error
80040000 g       *ABS*	00000000 __stack
80000000 g     F .exception_vector	00000198 __exception_entry
80000000 g       .exception_vector	00000000 __base
bfc00000 g       *ABS*	00000000 __flash_start
9fc00000 g     F .bootrom	00000144 __reset_vector
0001f800 g       *ABS*	00000000 __memory_size
80008610 g       *ABS*	00000000 __global
80000200  w    F .text	00000000 __isr_vec
00000000 g       *ABS*	00000000 __isr_vec_count



Disassembly of section .bootrom:

9fc00000 <__reset_vector>:
C:\Users\RampantVelcro\Desktop\SocProject1\software/boot.S:20
9fc00000:	40804800 	mtc0	zero,c0_count

9fc00004 <init_cp0>:
C:\Users\RampantVelcro\Desktop\SocProject1\software/boot.S:27
9fc00004:	3c030040 	lui	v1,0x40
9fc00008:	34630004 	ori	v1,v1,0x4
C:\Users\RampantVelcro\Desktop\SocProject1\software/boot.S:28
9fc0000c:	40836000 	mtc0	v1,c0_status
C:\Users\RampantVelcro\Desktop\SocProject1\software/boot.S:31
9fc00010:	40806800 	mtc0	zero,c0_cause
C:\Users\RampantVelcro\Desktop\SocProject1\software/boot.S:34
9fc00014:	40805800 	mtc0	zero,c0_compare

9fc00018 <init_tlb>:
C:\Users\RampantVelcro\Desktop\SocProject1\software/boot.S:44
9fc00018:	40038000 	mfc0	v1,c0_config
C:\Users\RampantVelcro\Desktop\SocProject1\software/boot.S:45
9fc0001c:	7c6311c0 	ext	v1,v1,0x7,0x3
C:\Users\RampantVelcro\Desktop\SocProject1\software/boot.S:46
9fc00020:	24070001 	li	a3,1
C:\Users\RampantVelcro\Desktop\SocProject1\software/boot.S:47
9fc00024:	1467000e 	bne	v1,a3,9fc00060 <init_icache>
C:\Users\RampantVelcro\Desktop\SocProject1\software/boot.S:50
9fc00028:	40028001 	mfc0	v0,c0_config1
C:\Users\RampantVelcro\Desktop\SocProject1\software/boot.S:51
9fc0002c:	7c432e40 	ext	v1,v0,0x19,0x6
C:\Users\RampantVelcro\Desktop\SocProject1\software/boot.S:52
9fc00030:	40801000 	mtc0	zero,c0_entrylo0
C:\Users\RampantVelcro\Desktop\SocProject1\software/boot.S:53
9fc00034:	40801800 	mtc0	zero,c0_entrylo1
C:\Users\RampantVelcro\Desktop\SocProject1\software/boot.S:54
9fc00038:	40802800 	mtc0	zero,c0_pagemask
C:\Users\RampantVelcro\Desktop\SocProject1\software/boot.S:55
9fc0003c:	40803000 	mtc0	zero,c0_wired
C:\Users\RampantVelcro\Desktop\SocProject1\software/boot.S:56
9fc00040:	3c048000 	lui	a0,0x8000

9fc00044 <next_tlb_entry>:
C:\Users\RampantVelcro\Desktop\SocProject1\software/boot.S:59
9fc00044:	40830000 	mtc0	v1,c0_index
C:\Users\RampantVelcro\Desktop\SocProject1\software/boot.S:60
9fc00048:	40845000 	mtc0	a0,c0_entryhi
C:\Users\RampantVelcro\Desktop\SocProject1\software/boot.S:61
9fc0004c:	000000c0 	ehb
C:\Users\RampantVelcro\Desktop\SocProject1\software/boot.S:62
9fc00050:	42000002 	tlbwi
C:\Users\RampantVelcro\Desktop\SocProject1\software/boot.S:63
9fc00054:	20844000 	addi	a0,a0,16384
C:\Users\RampantVelcro\Desktop\SocProject1\software/boot.S:65
9fc00058:	1460fffa 	bnez	v1,9fc00044 <next_tlb_entry>
C:\Users\RampantVelcro\Desktop\SocProject1\software/boot.S:66
9fc0005c:	2063ffff 	addi	v1,v1,-1

9fc00060 <init_icache>:
C:\Users\RampantVelcro\Desktop\SocProject1\software/boot.S:73
9fc00060:	40028001 	mfc0	v0,c0_config1
C:\Users\RampantVelcro\Desktop\SocProject1\software/boot.S:74
9fc00064:	7c4314c0 	ext	v1,v0,0x13,0x3
C:\Users\RampantVelcro\Desktop\SocProject1\software/boot.S:75
9fc00068:	10600010 	beqz	v1,9fc000ac <done_icache>
C:\Users\RampantVelcro\Desktop\SocProject1\software/boot.S:76
9fc0006c:	00000000 	nop
C:\Users\RampantVelcro\Desktop\SocProject1\software/boot.S:78
9fc00070:	24060002 	li	a2,2
C:\Users\RampantVelcro\Desktop\SocProject1\software/boot.S:79
9fc00074:	00661804 	sllv	v1,a2,v1
C:\Users\RampantVelcro\Desktop\SocProject1\software/boot.S:81
9fc00078:	7c441580 	ext	a0,v0,0x16,0x3
C:\Users\RampantVelcro\Desktop\SocProject1\software/boot.S:82
9fc0007c:	24060040 	li	a2,64
C:\Users\RampantVelcro\Desktop\SocProject1\software/boot.S:83
9fc00080:	00862004 	sllv	a0,a2,a0
C:\Users\RampantVelcro\Desktop\SocProject1\software/boot.S:85
9fc00084:	7c451400 	ext	a1,v0,0x10,0x3
C:\Users\RampantVelcro\Desktop\SocProject1\software/boot.S:86
9fc00088:	20a50001 	addi	a1,a1,1
C:\Users\RampantVelcro\Desktop\SocProject1\software/boot.S:87
9fc0008c:	70852002 	mul	a0,a0,a1
C:\Users\RampantVelcro\Desktop\SocProject1\software/boot.S:88
9fc00090:	3c068000 	lui	a2,0x8000
C:\Users\RampantVelcro\Desktop\SocProject1\software/boot.S:90
9fc00094:	4080e000 	mtc0	zero,c0_taglo
C:\Users\RampantVelcro\Desktop\SocProject1\software/boot.S:91
9fc00098:	00803825 	move	a3,a0

9fc0009c <next_icache_tag>:
C:\Users\RampantVelcro\Desktop\SocProject1\software/boot.S:96
9fc0009c:	bcc80000 	cache	0x8,0(a2)
C:\Users\RampantVelcro\Desktop\SocProject1\software/boot.S:97
9fc000a0:	20e7ffff 	addi	a3,a3,-1
C:\Users\RampantVelcro\Desktop\SocProject1\software/boot.S:98
9fc000a4:	14e0fffd 	bnez	a3,9fc0009c <next_icache_tag>
C:\Users\RampantVelcro\Desktop\SocProject1\software/boot.S:99
9fc000a8:	00c33020 	add	a2,a2,v1

9fc000ac <done_icache>:
C:\Users\RampantVelcro\Desktop\SocProject1\software/boot.S:111
9fc000ac:	40028000 	mfc0	v0,c0_config
C:\Users\RampantVelcro\Desktop\SocProject1\software/boot.S:112
9fc000b0:	24030003 	li	v1,3
C:\Users\RampantVelcro\Desktop\SocProject1\software/boot.S:113
9fc000b4:	7c621004 	ins	v0,v1,0x0,0x3
C:\Users\RampantVelcro\Desktop\SocProject1\software/boot.S:114
9fc000b8:	40828000 	mtc0	v0,c0_config
C:\Users\RampantVelcro\Desktop\SocProject1\software/boot.S:116
9fc000bc:	3c069fc0 	lui	a2,0x9fc0
9fc000c0:	24c600cc 	addiu	a2,a2,204
C:\Users\RampantVelcro\Desktop\SocProject1\software/boot.S:117
9fc000c4:	00c00008 	jr	a2
C:\Users\RampantVelcro\Desktop\SocProject1\software/boot.S:118
9fc000c8:	000000c0 	ehb

9fc000cc <init_dcache>:
C:\Users\RampantVelcro\Desktop\SocProject1\software/boot.S:124
9fc000cc:	40028001 	mfc0	v0,c0_config1
C:\Users\RampantVelcro\Desktop\SocProject1\software/boot.S:125
9fc000d0:	7c431280 	ext	v1,v0,0xa,0x3
C:\Users\RampantVelcro\Desktop\SocProject1\software/boot.S:126
9fc000d4:	10600011 	beqz	v1,9fc0011c <done_dcache>
C:\Users\RampantVelcro\Desktop\SocProject1\software/boot.S:127
9fc000d8:	00000000 	nop
C:\Users\RampantVelcro\Desktop\SocProject1\software/boot.S:129
9fc000dc:	24060002 	li	a2,2
C:\Users\RampantVelcro\Desktop\SocProject1\software/boot.S:130
9fc000e0:	00661804 	sllv	v1,a2,v1
C:\Users\RampantVelcro\Desktop\SocProject1\software/boot.S:132
9fc000e4:	7c441340 	ext	a0,v0,0xd,0x3
C:\Users\RampantVelcro\Desktop\SocProject1\software/boot.S:133
9fc000e8:	24060040 	li	a2,64
C:\Users\RampantVelcro\Desktop\SocProject1\software/boot.S:134
9fc000ec:	00862004 	sllv	a0,a2,a0
C:\Users\RampantVelcro\Desktop\SocProject1\software/boot.S:136
9fc000f0:	7c4511c0 	ext	a1,v0,0x7,0x3
C:\Users\RampantVelcro\Desktop\SocProject1\software/boot.S:137
9fc000f4:	20a50001 	addi	a1,a1,1
C:\Users\RampantVelcro\Desktop\SocProject1\software/boot.S:138
9fc000f8:	70852002 	mul	a0,a0,a1
C:\Users\RampantVelcro\Desktop\SocProject1\software/boot.S:139
9fc000fc:	3c068000 	lui	a2,0x8000
C:\Users\RampantVelcro\Desktop\SocProject1\software/boot.S:141
9fc00100:	4080e000 	mtc0	zero,c0_taglo
C:\Users\RampantVelcro\Desktop\SocProject1\software/boot.S:142
9fc00104:	4080e002 	mtc0	zero,c0_taglo1
C:\Users\RampantVelcro\Desktop\SocProject1\software/boot.S:143
9fc00108:	00803825 	move	a3,a0

9fc0010c <next_dcache_tag>:
C:\Users\RampantVelcro\Desktop\SocProject1\software/boot.S:148
9fc0010c:	bcc90000 	cache	0x9,0(a2)
C:\Users\RampantVelcro\Desktop\SocProject1\software/boot.S:149
9fc00110:	20e7ffff 	addi	a3,a3,-1
C:\Users\RampantVelcro\Desktop\SocProject1\software/boot.S:150
9fc00114:	14e0fffd 	bnez	a3,9fc0010c <next_dcache_tag>
C:\Users\RampantVelcro\Desktop\SocProject1\software/boot.S:151
9fc00118:	00c33020 	add	a2,a2,v1

9fc0011c <done_dcache>:
C:\Users\RampantVelcro\Desktop\SocProject1\software/boot.S:156
9fc0011c:	3c1f9fc0 	lui	ra,0x9fc0
9fc00120:	27ff013c 	addiu	ra,ra,316
C:\Users\RampantVelcro\Desktop\SocProject1\software/boot.S:157
9fc00124:	00002025 	move	a0,zero
C:\Users\RampantVelcro\Desktop\SocProject1\software/boot.S:159
9fc00128:	3c029fc0 	lui	v0,0x9fc0
9fc0012c:	24420144 	addiu	v0,v0,324
C:\Users\RampantVelcro\Desktop\SocProject1\software/boot.S:160
9fc00130:	4082f000 	mtc0	v0,c0_errorepc
C:\Users\RampantVelcro\Desktop\SocProject1\software/boot.S:161
9fc00134:	000000c0 	ehb
C:\Users\RampantVelcro\Desktop\SocProject1\software/boot.S:165
9fc00138:	42000018 	eret

9fc0013c <all_done>:
C:\Users\RampantVelcro\Desktop\SocProject1\software/boot.S:171
9fc0013c:	1000ffff 	b	9fc0013c <all_done>
C:\Users\RampantVelcro\Desktop\SocProject1\software/boot.S:172
9fc00140:	00000000 	nop

9fc00144 <_start>:
C:\Users\RampantVelcro\Desktop\SocProject1\software/crt0.S:16
9fc00144:	03e08025 	move	s0,ra
C:\Users\RampantVelcro\Desktop\SocProject1\software/crt0.S:18
9fc00148:	3c1c8001 	lui	gp,0x8001
9fc0014c:	279c8610 	addiu	gp,gp,-31216
C:\Users\RampantVelcro\Desktop\SocProject1\software/crt0.S:20
9fc00150:	3c1d8004 	lui	sp,0x8004
9fc00154:	27bd0000 	addiu	sp,sp,0
C:\Users\RampantVelcro\Desktop\SocProject1\software/crt0.S:22
9fc00158:	3c028000 	lui	v0,0x8000
9fc0015c:	24420610 	addiu	v0,v0,1552
C:\Users\RampantVelcro\Desktop\SocProject1\software/crt0.S:23
9fc00160:	3c038000 	lui	v1,0x8000
9fc00164:	24630610 	addiu	v1,v1,1552
C:\Users\RampantVelcro\Desktop\SocProject1\software/crt0.S:24
9fc00168:	10430004 	beq	v0,v1,9fc0017c <_start+0x38>
9fc0016c:	00000000 	nop
C:\Users\RampantVelcro\Desktop\SocProject1\software/crt0.S:26
9fc00170:	24420004 	addiu	v0,v0,4
C:\Users\RampantVelcro\Desktop\SocProject1\software/crt0.S:28
9fc00174:	1443fffe 	bne	v0,v1,9fc00170 <_start+0x2c>
9fc00178:	ac40fffc 	sw	zero,-4(v0)
C:\Users\RampantVelcro\Desktop\SocProject1\software/crt0.S:31
9fc0017c:	24040000 	li	a0,0
C:\Users\RampantVelcro\Desktop\SocProject1\software/crt0.S:33
9fc00180:	27bdfff0 	addiu	sp,sp,-16
C:\Users\RampantVelcro\Desktop\SocProject1\software/crt0.S:37
9fc00184:	40026000 	mfc0	v0,c0_status
C:\Users\RampantVelcro\Desktop\SocProject1\software/crt0.S:38
9fc00188:	7c02b584 	ins	v0,zero,0x16,0x1
C:\Users\RampantVelcro\Desktop\SocProject1\software/crt0.S:39
9fc0018c:	40826000 	mtc0	v0,c0_status
C:\Users\RampantVelcro\Desktop\SocProject1\software/crt0.S:40
9fc00190:	000000c0 	ehb
C:\Users\RampantVelcro\Desktop\SocProject1\software/crt0.S:43
9fc00194:	3c088000 	lui	t0,0x8000
9fc00198:	25080204 	addiu	t0,t0,516
C:\Users\RampantVelcro\Desktop\SocProject1\software/crt0.S:44
9fc0019c:	0100f809 	jalr	t0
9fc001a0:	00000000 	nop
C:\Users\RampantVelcro\Desktop\SocProject1\software/crt0.S:47
9fc001a4:	0200f825 	move	ra,s0
C:\Users\RampantVelcro\Desktop\SocProject1\software/crt0.S:48
9fc001a8:	03e00008 	jr	ra
9fc001ac:	00000000 	nop

Disassembly of section .exception_vector:

80000000 <__exception_entry>:
C:\Users\RampantVelcro\Desktop\SocProject1\software/exceptions.S:45
80000000:	3c1b0000 	lui	k1,0x0
80000004:	277b0000 	addiu	k1,k1,0
C:\Users\RampantVelcro\Desktop\SocProject1\software/exceptions.S:46
80000008:	1360fffd 	beqz	k1,80000000 <__exception_entry>
8000000c:	00000000 	nop
C:\Users\RampantVelcro\Desktop\SocProject1\software/exceptions.S:47
80000010:	03600008 	jr	k1
80000014:	00000000 	nop
	...

80000080 <__xtlb_refill_loop>:
C:\Users\RampantVelcro\Desktop\SocProject1\software/exceptions.S:52
80000080:	3c1b0000 	lui	k1,0x0
80000084:	277b0000 	addiu	k1,k1,0
C:\Users\RampantVelcro\Desktop\SocProject1\software/exceptions.S:53
80000088:	1360fffd 	beqz	k1,80000080 <__xtlb_refill_loop>
8000008c:	00000000 	nop
C:\Users\RampantVelcro\Desktop\SocProject1\software/exceptions.S:54
80000090:	03600008 	jr	k1
80000094:	00000000 	nop
	...

80000100 <__cache_error_loop>:
C:\Users\RampantVelcro\Desktop\SocProject1\software/exceptions.S:59
80000100:	3c1b0000 	lui	k1,0x0
80000104:	277b0000 	addiu	k1,k1,0
C:\Users\RampantVelcro\Desktop\SocProject1\software/exceptions.S:60
80000108:	1360fffd 	beqz	k1,80000100 <__cache_error_loop>
8000010c:	00000000 	nop
C:\Users\RampantVelcro\Desktop\SocProject1\software/exceptions.S:61
80000110:	03600008 	jr	k1
80000114:	00000000 	nop
	...

80000180 <__general_exception_loop>:
C:\Users\RampantVelcro\Desktop\SocProject1\software/exceptions.S:66
80000180:	3c1b0000 	lui	k1,0x0
80000184:	277b0000 	addiu	k1,k1,0
C:\Users\RampantVelcro\Desktop\SocProject1\software/exceptions.S:67
80000188:	1360fffd 	beqz	k1,80000180 <__general_exception_loop>
8000018c:	00000000 	nop
C:\Users\RampantVelcro\Desktop\SocProject1\software/exceptions.S:68
80000190:	03600008 	jr	k1
80000194:	00000000 	nop
	...

Disassembly of section .text:

80000200 <__exception_handle>:
C:\Users\RampantVelcro\Desktop\SocProject1\software/dummy.S:59
80000200:	00000000 	nop

80000204 <main>:
C:\Users\RampantVelcro\Desktop\Class\Fall2018\ECE540\ECE540Project1\Software/main.S:74
80000204:	24040000 	li	a0,0
C:\Users\RampantVelcro\Desktop\Class\Fall2018\ECE540\ECE540Project1\Software/main.S:75
80000208:	2405005a 	li	a1,90
C:\Users\RampantVelcro\Desktop\Class\Fall2018\ECE540\ECE540Project1\Software/main.S:76
8000020c:	3c06bf70 	lui	a2,0xbf70
C:\Users\RampantVelcro\Desktop\Class\Fall2018\ECE540\ECE540Project1\Software/main.S:77
80000210:	3c07bf70 	lui	a3,0xbf70
80000214:	34e70008 	ori	a3,a3,0x8
C:\Users\RampantVelcro\Desktop\Class\Fall2018\ECE540\ECE540Project1\Software/main.S:78
80000218:	3c08bf80 	lui	t0,0xbf80
8000021c:	35080008 	ori	t0,t0,0x8
C:\Users\RampantVelcro\Desktop\Class\Fall2018\ECE540\ECE540Project1\Software/main.S:79
80000220:	3c09bf80 	lui	t1,0xbf80
80000224:	35290014 	ori	t1,t1,0x14
C:\Users\RampantVelcro\Desktop\Class\Fall2018\ECE540\ECE540Project1\Software/main.S:80
80000228:	3c0abf80 	lui	t2,0xbf80
8000022c:	354a000c 	ori	t2,t2,0xc
C:\Users\RampantVelcro\Desktop\Class\Fall2018\ECE540\ECE540Project1\Software/main.S:81
80000230:	3c0bbf80 	lui	t3,0xbf80
80000234:	356b0010 	ori	t3,t3,0x10
C:\Users\RampantVelcro\Desktop\Class\Fall2018\ECE540\ECE540Project1\Software/main.S:82
80000238:	3c0cbf80 	lui	t4,0xbf80
8000023c:	358c0018 	ori	t4,t4,0x18
C:\Users\RampantVelcro\Desktop\Class\Fall2018\ECE540\ECE540Project1\Software/main.S:83
80000240:	240d0000 	li	t5,0
C:\Users\RampantVelcro\Desktop\Class\Fall2018\ECE540\ECE540Project1\Software/main.S:84
80000244:	240e005a 	li	t6,90
C:\Users\RampantVelcro\Desktop\Class\Fall2018\ECE540\ECE540Project1\Software/main.S:85
80000248:	240f0000 	li	t7,0
C:\Users\RampantVelcro\Desktop\Class\Fall2018\ECE540\ECE540Project1\Software/main.S:86
8000024c:	24170000 	li	s7,0
C:\Users\RampantVelcro\Desktop\Class\Fall2018\ECE540\ECE540Project1\Software/main.S:87
80000250:	24180000 	li	t8,0
C:\Users\RampantVelcro\Desktop\Class\Fall2018\ECE540\ECE540Project1\Software/main.S:93
80000254:	24190000 	li	t9,0
C:\Users\RampantVelcro\Desktop\Class\Fall2018\ECE540\ECE540Project1\Software/main.S:95
80000258:	241600f8 	li	s6,248
C:\Users\RampantVelcro\Desktop\Class\Fall2018\ECE540\ECE540Project1\Software/main.S:96
8000025c:	acd60000 	sw	s6,0(a2)
C:\Users\RampantVelcro\Desktop\Class\Fall2018\ECE540\ECE540Project1\Software/main.S:98
80000260:	24160000 	li	s6,0
C:\Users\RampantVelcro\Desktop\Class\Fall2018\ECE540\ECE540Project1\Software/main.S:101
80000264:	0c000173 	jal	800005cc <getBotInfoandDisplay>
80000268:	ad360000 	sw	s6,0(t1)
C:\Users\RampantVelcro\Desktop\Class\Fall2018\ECE540\ECE540Project1\Software/main.S:102
8000026c:	080000fa 	j	800003e8 <statemachineoutput>
80000270:	00000000 	nop

80000274 <updatelooplogic>:
C:\Users\RampantVelcro\Desktop\Class\Fall2018\ECE540\ECE540Project1\Software/main.S:106
80000274:	8d760000 	lw	s6,0(t3)
C:\Users\RampantVelcro\Desktop\Class\Fall2018\ECE540\ECE540Project1\Software/main.S:109
80000278:	12c0fffe 	beqz	s6,80000274 <updatelooplogic>
8000027c:	00000000 	nop
C:\Users\RampantVelcro\Desktop\Class\Fall2018\ECE540\ECE540Project1\Software/main.S:110
80000280:	00000000 	nop
C:\Users\RampantVelcro\Desktop\Class\Fall2018\ECE540\ECE540Project1\Software/main.S:113
80000284:	24160001 	li	s6,1
C:\Users\RampantVelcro\Desktop\Class\Fall2018\ECE540\ECE540Project1\Software/main.S:120
80000288:	0c000173 	jal	800005cc <getBotInfoandDisplay>
8000028c:	ad960000 	sw	s6,0(t4)
C:\Users\RampantVelcro\Desktop\Class\Fall2018\ECE540\ECE540Project1\Software/main.S:122
80000290:	080000a6 	j	80000298 <nextstatelogic>
80000294:	00000000 	nop

80000298 <nextstatelogic>:
C:\Users\RampantVelcro\Desktop\Class\Fall2018\ECE540\ECE540Project1\Software/main.S:127
80000298:	1080000f 	beqz	a0,800002d8 <forwardnextlabel>
8000029c:	00000000 	nop
C:\Users\RampantVelcro\Desktop\Class\Fall2018\ECE540\ECE540Project1\Software/main.S:128
800002a0:	24010001 	li	at,1
800002a4:	10810012 	beq	a0,at,800002f0 <rightturnnextlabel>
800002a8:	00000000 	nop
C:\Users\RampantVelcro\Desktop\Class\Fall2018\ECE540\ECE540Project1\Software/main.S:129
800002ac:	24010002 	li	at,2
800002b0:	10810024 	beq	a0,at,80000344 <reversenextlabel>
800002b4:	00000000 	nop
C:\Users\RampantVelcro\Desktop\Class\Fall2018\ECE540\ECE540Project1\Software/main.S:130
800002b8:	24010003 	li	at,3
800002bc:	10810029 	beq	a0,at,80000364 <forwardnot180nextlabel>
800002c0:	00000000 	nop
C:\Users\RampantVelcro\Desktop\Class\Fall2018\ECE540\ECE540Project1\Software/main.S:131
800002c4:	24010004 	li	at,4
800002c8:	10810024 	beq	a0,at,8000035c <forwardnot180nextset>
800002cc:	00000000 	nop
C:\Users\RampantVelcro\Desktop\Class\Fall2018\ECE540\ECE540Project1\Software/main.S:132
800002d0:	080000b6 	j	800002d8 <forwardnextlabel>
800002d4:	00000000 	nop

800002d8 <forwardnextlabel>:
C:\Users\RampantVelcro\Desktop\Class\Fall2018\ECE540\ECE540Project1\Software/main.S:137
800002d8:	32f60700 	andi	s6,s7,0x700
C:\Users\RampantVelcro\Desktop\Class\Fall2018\ECE540\ECE540Project1\Software/main.S:138
800002dc:	0016b202 	srl	s6,s6,0x8
C:\Users\RampantVelcro\Desktop\Class\Fall2018\ECE540\ECE540Project1\Software/main.S:141
800002e0:	16c0003b 	bnez	s6,800003d0 <nextstatereverse>
800002e4:	00000000 	nop
C:\Users\RampantVelcro\Desktop\Class\Fall2018\ECE540\ECE540Project1\Software/main.S:143
800002e8:	080000fa 	j	800003e8 <statemachineoutput>
800002ec:	00000000 	nop

800002f0 <rightturnnextlabel>:
C:\Users\RampantVelcro\Desktop\Class\Fall2018\ECE540\ECE540Project1\Software/main.S:148
800002f0:	32f60700 	andi	s6,s7,0x700
C:\Users\RampantVelcro\Desktop\Class\Fall2018\ECE540\ECE540Project1\Software/main.S:149
800002f4:	0016b202 	srl	s6,s6,0x8
C:\Users\RampantVelcro\Desktop\Class\Fall2018\ECE540\ECE540Project1\Software/main.S:153
800002f8:	0205b022 	sub	s6,s0,a1
C:\Users\RampantVelcro\Desktop\Class\Fall2018\ECE540\ECE540Project1\Software/main.S:155
800002fc:	240100b4 	li	at,180
80000300:	16c10003 	bne	s6,at,80000310 <checkorientdiff0>
80000304:	00000000 	nop
C:\Users\RampantVelcro\Desktop\Class\Fall2018\ECE540\ECE540Project1\Software/main.S:157
80000308:	080000fa 	j	800003e8 <statemachineoutput>
8000030c:	00000000 	nop

80000310 <checkorientdiff0>:
C:\Users\RampantVelcro\Desktop\Class\Fall2018\ECE540\ECE540Project1\Software/main.S:161
80000310:	16c00003 	bnez	s6,80000320 <checkorientdiffneg180>
80000314:	00000000 	nop
C:\Users\RampantVelcro\Desktop\Class\Fall2018\ECE540\ECE540Project1\Software/main.S:163
80000318:	080000fa 	j	800003e8 <statemachineoutput>
8000031c:	00000000 	nop

80000320 <checkorientdiffneg180>:
C:\Users\RampantVelcro\Desktop\Class\Fall2018\ECE540\ECE540Project1\Software/main.S:167
80000320:	2401ff4c 	li	at,-180
80000324:	16c10003 	bne	s6,at,80000334 <checkorientdifflastforward180>
80000328:	00000000 	nop
C:\Users\RampantVelcro\Desktop\Class\Fall2018\ECE540\ECE540Project1\Software/main.S:169
8000032c:	080000fa 	j	800003e8 <statemachineoutput>
80000330:	00000000 	nop

80000334 <checkorientdifflastforward180>:
C:\Users\RampantVelcro\Desktop\Class\Fall2018\ECE540\ECE540Project1\Software/main.S:173
80000334:	160e002a 	bne	s0,t6,800003e0 <nextstateforwardnot180set>
80000338:	00000000 	nop
C:\Users\RampantVelcro\Desktop\Class\Fall2018\ECE540\ECE540Project1\Software/main.S:175
8000033c:	080000fa 	j	800003e8 <statemachineoutput>
80000340:	00000000 	nop

80000344 <reversenextlabel>:
C:\Users\RampantVelcro\Desktop\Class\Fall2018\ECE540\ECE540Project1\Software/main.S:179
80000344:	32f60700 	andi	s6,s7,0x700
C:\Users\RampantVelcro\Desktop\Class\Fall2018\ECE540\ECE540Project1\Software/main.S:180
80000348:	0016b202 	srl	s6,s6,0x8
C:\Users\RampantVelcro\Desktop\Class\Fall2018\ECE540\ECE540Project1\Software/main.S:183
8000034c:	12c0001e 	beqz	s6,800003c8 <rightturnnext>
80000350:	00000000 	nop
C:\Users\RampantVelcro\Desktop\Class\Fall2018\ECE540\ECE540Project1\Software/main.S:185
80000354:	080000fa 	j	800003e8 <statemachineoutput>
80000358:	00000000 	nop

8000035c <forwardnot180nextset>:
C:\Users\RampantVelcro\Desktop\Class\Fall2018\ECE540\ECE540Project1\Software/main.S:190
8000035c:	080000f6 	j	800003d8 <nextstateforwardnot180>
80000360:	00000000 	nop

80000364 <forwardnot180nextlabel>:
C:\Users\RampantVelcro\Desktop\Class\Fall2018\ECE540\ECE540Project1\Software/main.S:195
80000364:	32f60700 	andi	s6,s7,0x700
C:\Users\RampantVelcro\Desktop\Class\Fall2018\ECE540\ECE540Project1\Software/main.S:196
80000368:	0016b202 	srl	s6,s6,0x8
C:\Users\RampantVelcro\Desktop\Class\Fall2018\ECE540\ECE540Project1\Software/main.S:199
8000036c:	12c00003 	beqz	s6,8000037c <checkpostionchange>
80000370:	00000000 	nop
C:\Users\RampantVelcro\Desktop\Class\Fall2018\ECE540\ECE540Project1\Software/main.S:200
80000374:	080000f4 	j	800003d0 <nextstatereverse>
80000378:	00000000 	nop

8000037c <checkpostionchange>:
C:\Users\RampantVelcro\Desktop\Class\Fall2018\ECE540\ECE540Project1\Software/main.S:205
8000037c:	3c02ff00 	lui	v0,0xff00
C:\Users\RampantVelcro\Desktop\Class\Fall2018\ECE540\ECE540Project1\Software/main.S:206
80000380:	02e2b024 	and	s6,s7,v0
C:\Users\RampantVelcro\Desktop\Class\Fall2018\ECE540\ECE540Project1\Software/main.S:207
80000384:	0016b602 	srl	s6,s6,0x18
C:\Users\RampantVelcro\Desktop\Class\Fall2018\ECE540\ECE540Project1\Software/main.S:208
80000388:	3303ff00 	andi	v1,t8,0xff00
C:\Users\RampantVelcro\Desktop\Class\Fall2018\ECE540\ECE540Project1\Software/main.S:209
8000038c:	00031a02 	srl	v1,v1,0x8
C:\Users\RampantVelcro\Desktop\Class\Fall2018\ECE540\ECE540Project1\Software/main.S:211
80000390:	1476000b 	bne	v1,s6,800003c0 <nextstateforward>
80000394:	00000000 	nop
C:\Users\RampantVelcro\Desktop\Class\Fall2018\ECE540\ECE540Project1\Software/main.S:213
80000398:	080000e8 	j	800003a0 <checkpositionchange2>
8000039c:	00000000 	nop

800003a0 <checkpositionchange2>:
C:\Users\RampantVelcro\Desktop\Class\Fall2018\ECE540\ECE540Project1\Software/main.S:217
800003a0:	3c0200ff 	lui	v0,0xff
C:\Users\RampantVelcro\Desktop\Class\Fall2018\ECE540\ECE540Project1\Software/main.S:218
800003a4:	02e2b024 	and	s6,s7,v0
C:\Users\RampantVelcro\Desktop\Class\Fall2018\ECE540\ECE540Project1\Software/main.S:219
800003a8:	0016b402 	srl	s6,s6,0x10
C:\Users\RampantVelcro\Desktop\Class\Fall2018\ECE540\ECE540Project1\Software/main.S:220
800003ac:	330300ff 	andi	v1,t8,0xff
C:\Users\RampantVelcro\Desktop\Class\Fall2018\ECE540\ECE540Project1\Software/main.S:222
800003b0:	14760003 	bne	v1,s6,800003c0 <nextstateforward>
800003b4:	00000000 	nop
C:\Users\RampantVelcro\Desktop\Class\Fall2018\ECE540\ECE540Project1\Software/main.S:224
800003b8:	080000fa 	j	800003e8 <statemachineoutput>
800003bc:	00000000 	nop

800003c0 <nextstateforward>:
C:\Users\RampantVelcro\Desktop\Class\Fall2018\ECE540\ECE540Project1\Software/main.S:229
800003c0:	080000fa 	j	800003e8 <statemachineoutput>
800003c4:	24040000 	li	a0,0

800003c8 <rightturnnext>:
C:\Users\RampantVelcro\Desktop\Class\Fall2018\ECE540\ECE540Project1\Software/main.S:234
800003c8:	080000fa 	j	800003e8 <statemachineoutput>
800003cc:	24040001 	li	a0,1

800003d0 <nextstatereverse>:
C:\Users\RampantVelcro\Desktop\Class\Fall2018\ECE540\ECE540Project1\Software/main.S:239
800003d0:	080000fa 	j	800003e8 <statemachineoutput>
800003d4:	24040002 	li	a0,2

800003d8 <nextstateforwardnot180>:
C:\Users\RampantVelcro\Desktop\Class\Fall2018\ECE540\ECE540Project1\Software/main.S:244
800003d8:	080000fa 	j	800003e8 <statemachineoutput>
800003dc:	24040003 	li	a0,3

800003e0 <nextstateforwardnot180set>:
C:\Users\RampantVelcro\Desktop\Class\Fall2018\ECE540\ECE540Project1\Software/main.S:249
800003e0:	080000fa 	j	800003e8 <statemachineoutput>
800003e4:	24040004 	li	a0,4

800003e8 <statemachineoutput>:
C:\Users\RampantVelcro\Desktop\Class\Fall2018\ECE540\ECE540Project1\Software/main.S:253
800003e8:	1080000f 	beqz	a0,80000428 <forwardoutlabel>
800003ec:	00000000 	nop
C:\Users\RampantVelcro\Desktop\Class\Fall2018\ECE540\ECE540Project1\Software/main.S:254
800003f0:	24010001 	li	at,1
800003f4:	10810010 	beq	a0,at,80000438 <rightturnoutlabel>
800003f8:	00000000 	nop
C:\Users\RampantVelcro\Desktop\Class\Fall2018\ECE540\ECE540Project1\Software/main.S:255
800003fc:	24010002 	li	at,2
80000400:	10810010 	beq	a0,at,80000444 <reverseoutlabel>
80000404:	00000000 	nop
C:\Users\RampantVelcro\Desktop\Class\Fall2018\ECE540\ECE540Project1\Software/main.S:256
80000408:	24010003 	li	at,3
8000040c:	10810010 	beq	a0,at,80000450 <forwardnot180outlabel>
80000410:	00000000 	nop
C:\Users\RampantVelcro\Desktop\Class\Fall2018\ECE540\ECE540Project1\Software/main.S:257
80000414:	24010004 	li	at,4
80000418:	10810010 	beq	a0,at,8000045c <forwardnot180outsetlabel>
8000041c:	00000000 	nop
C:\Users\RampantVelcro\Desktop\Class\Fall2018\ECE540\ECE540Project1\Software/main.S:258
80000420:	0800010a 	j	80000428 <forwardoutlabel>
80000424:	00000000 	nop

80000428 <forwardoutlabel>:
C:\Users\RampantVelcro\Desktop\Class\Fall2018\ECE540\ECE540Project1\Software/main.S:263
80000428:	24160033 	li	s6,51
C:\Users\RampantVelcro\Desktop\Class\Fall2018\ECE540\ECE540Project1\Software/main.S:264
8000042c:	ad360000 	sw	s6,0(t1)
C:\Users\RampantVelcro\Desktop\Class\Fall2018\ECE540\ECE540Project1\Software/main.S:267
80000430:	08000123 	j	8000048c <statemachineoutputdone>
80000434:	00102820 	add	a1,zero,s0

80000438 <rightturnoutlabel>:
C:\Users\RampantVelcro\Desktop\Class\Fall2018\ECE540\ECE540Project1\Software/main.S:270
80000438:	24160030 	li	s6,48
C:\Users\RampantVelcro\Desktop\Class\Fall2018\ECE540\ECE540Project1\Software/main.S:273
8000043c:	08000123 	j	8000048c <statemachineoutputdone>
80000440:	ad360000 	sw	s6,0(t1)

80000444 <reverseoutlabel>:
C:\Users\RampantVelcro\Desktop\Class\Fall2018\ECE540\ECE540Project1\Software/main.S:276
80000444:	24160022 	li	s6,34
C:\Users\RampantVelcro\Desktop\Class\Fall2018\ECE540\ECE540Project1\Software/main.S:279
80000448:	08000123 	j	8000048c <statemachineoutputdone>
8000044c:	ad360000 	sw	s6,0(t1)

80000450 <forwardnot180outlabel>:
C:\Users\RampantVelcro\Desktop\Class\Fall2018\ECE540\ECE540Project1\Software/main.S:282
80000450:	24160033 	li	s6,51
C:\Users\RampantVelcro\Desktop\Class\Fall2018\ECE540\ECE540Project1\Software/main.S:285
80000454:	08000123 	j	8000048c <statemachineoutputdone>
80000458:	ad360000 	sw	s6,0(t1)

8000045c <forwardnot180outsetlabel>:
C:\Users\RampantVelcro\Desktop\Class\Fall2018\ECE540\ECE540Project1\Software/main.S:288
8000045c:	00107020 	add	t6,zero,s0
C:\Users\RampantVelcro\Desktop\Class\Fall2018\ECE540\ECE540Project1\Software/main.S:291
80000460:	3c02ff00 	lui	v0,0xff00
C:\Users\RampantVelcro\Desktop\Class\Fall2018\ECE540\ECE540Project1\Software/main.S:292
80000464:	02e2b024 	and	s6,s7,v0
C:\Users\RampantVelcro\Desktop\Class\Fall2018\ECE540\ECE540Project1\Software/main.S:293
80000468:	0016b402 	srl	s6,s6,0x10
C:\Users\RampantVelcro\Desktop\Class\Fall2018\ECE540\ECE540Project1\Software/main.S:294
8000046c:	02c0c020 	add	t8,s6,zero
C:\Users\RampantVelcro\Desktop\Class\Fall2018\ECE540\ECE540Project1\Software/main.S:295
80000470:	3c0200ff 	lui	v0,0xff
C:\Users\RampantVelcro\Desktop\Class\Fall2018\ECE540\ECE540Project1\Software/main.S:296
80000474:	02e2b024 	and	s6,s7,v0
C:\Users\RampantVelcro\Desktop\Class\Fall2018\ECE540\ECE540Project1\Software/main.S:297
80000478:	0016b402 	srl	s6,s6,0x10
C:\Users\RampantVelcro\Desktop\Class\Fall2018\ECE540\ECE540Project1\Software/main.S:298
8000047c:	02d8c020 	add	t8,s6,t8
C:\Users\RampantVelcro\Desktop\Class\Fall2018\ECE540\ECE540Project1\Software/main.S:300
80000480:	24160033 	li	s6,51
C:\Users\RampantVelcro\Desktop\Class\Fall2018\ECE540\ECE540Project1\Software/main.S:303
80000484:	08000123 	j	8000048c <statemachineoutputdone>
80000488:	ad360000 	sw	s6,0(t1)

8000048c <statemachineoutputdone>:
C:\Users\RampantVelcro\Desktop\Class\Fall2018\ECE540\ECE540Project1\Software/main.S:306
8000048c:	24160000 	li	s6,0
C:\Users\RampantVelcro\Desktop\Class\Fall2018\ECE540\ECE540Project1\Software/main.S:309
80000490:	0800009d 	j	80000274 <updatelooplogic>
80000494:	ad960000 	sw	s6,0(t4)

80000498 <getOrientation>:
C:\Users\RampantVelcro\Desktop\Class\Fall2018\ECE540\ECE540Project1\Software/main.S:317
80000498:	12800018 	beqz	s4,800004fc <setorient0>
8000049c:	00000000 	nop
C:\Users\RampantVelcro\Desktop\Class\Fall2018\ECE540\ECE540Project1\Software/main.S:318
800004a0:	24010001 	li	at,1
800004a4:	1281001a 	beq	s4,at,80000510 <setorient45>
800004a8:	00000000 	nop
C:\Users\RampantVelcro\Desktop\Class\Fall2018\ECE540\ECE540Project1\Software/main.S:319
800004ac:	24010002 	li	at,2
800004b0:	1281001c 	beq	s4,at,80000524 <setorient90>
800004b4:	00000000 	nop
C:\Users\RampantVelcro\Desktop\Class\Fall2018\ECE540\ECE540Project1\Software/main.S:320
800004b8:	24010003 	li	at,3
800004bc:	1281001e 	beq	s4,at,80000538 <setorient135>
800004c0:	00000000 	nop
C:\Users\RampantVelcro\Desktop\Class\Fall2018\ECE540\ECE540Project1\Software/main.S:321
800004c4:	24010004 	li	at,4
800004c8:	12810020 	beq	s4,at,8000054c <setorient180>
800004cc:	00000000 	nop
C:\Users\RampantVelcro\Desktop\Class\Fall2018\ECE540\ECE540Project1\Software/main.S:322
800004d0:	24010005 	li	at,5
800004d4:	12810022 	beq	s4,at,80000560 <setorient225>
800004d8:	00000000 	nop
C:\Users\RampantVelcro\Desktop\Class\Fall2018\ECE540\ECE540Project1\Software/main.S:323
800004dc:	24010006 	li	at,6
800004e0:	12810024 	beq	s4,at,80000574 <setorient270>
800004e4:	00000000 	nop
C:\Users\RampantVelcro\Desktop\Class\Fall2018\ECE540\ECE540Project1\Software/main.S:324
800004e8:	24010007 	li	at,7
800004ec:	12810026 	beq	s4,at,80000588 <setorient315>
800004f0:	00000000 	nop
C:\Users\RampantVelcro\Desktop\Class\Fall2018\ECE540\ECE540Project1\Software/main.S:325
800004f4:	0800013f 	j	800004fc <setorient0>
800004f8:	00000000 	nop

800004fc <setorient0>:
C:\Users\RampantVelcro\Desktop\Class\Fall2018\ECE540\ECE540Project1\Software/main.S:328
800004fc:	20100000 	addi	s0,zero,0
C:\Users\RampantVelcro\Desktop\Class\Fall2018\ECE540\ECE540Project1\Software/main.S:329
80000500:	20110000 	addi	s1,zero,0
C:\Users\RampantVelcro\Desktop\Class\Fall2018\ECE540\ECE540Project1\Software/main.S:330
80000504:	20120000 	addi	s2,zero,0
C:\Users\RampantVelcro\Desktop\Class\Fall2018\ECE540\ECE540Project1\Software/main.S:332
80000508:	08000167 	j	8000059c <endgetOrientation>
8000050c:	20130000 	addi	s3,zero,0

80000510 <setorient45>:
C:\Users\RampantVelcro\Desktop\Class\Fall2018\ECE540\ECE540Project1\Software/main.S:335
80000510:	2010002d 	addi	s0,zero,45
C:\Users\RampantVelcro\Desktop\Class\Fall2018\ECE540\ECE540Project1\Software/main.S:336
80000514:	20110000 	addi	s1,zero,0
C:\Users\RampantVelcro\Desktop\Class\Fall2018\ECE540\ECE540Project1\Software/main.S:337
80000518:	20120004 	addi	s2,zero,4
C:\Users\RampantVelcro\Desktop\Class\Fall2018\ECE540\ECE540Project1\Software/main.S:339
8000051c:	08000167 	j	8000059c <endgetOrientation>
80000520:	20130005 	addi	s3,zero,5

80000524 <setorient90>:
C:\Users\RampantVelcro\Desktop\Class\Fall2018\ECE540\ECE540Project1\Software/main.S:342
80000524:	2010005a 	addi	s0,zero,90
C:\Users\RampantVelcro\Desktop\Class\Fall2018\ECE540\ECE540Project1\Software/main.S:343
80000528:	20110000 	addi	s1,zero,0
C:\Users\RampantVelcro\Desktop\Class\Fall2018\ECE540\ECE540Project1\Software/main.S:344
8000052c:	20120009 	addi	s2,zero,9
C:\Users\RampantVelcro\Desktop\Class\Fall2018\ECE540\ECE540Project1\Software/main.S:346
80000530:	08000167 	j	8000059c <endgetOrientation>
80000534:	20130000 	addi	s3,zero,0

80000538 <setorient135>:
C:\Users\RampantVelcro\Desktop\Class\Fall2018\ECE540\ECE540Project1\Software/main.S:349
80000538:	20100087 	addi	s0,zero,135
C:\Users\RampantVelcro\Desktop\Class\Fall2018\ECE540\ECE540Project1\Software/main.S:350
8000053c:	20110001 	addi	s1,zero,1
C:\Users\RampantVelcro\Desktop\Class\Fall2018\ECE540\ECE540Project1\Software/main.S:351
80000540:	20120003 	addi	s2,zero,3
C:\Users\RampantVelcro\Desktop\Class\Fall2018\ECE540\ECE540Project1\Software/main.S:353
80000544:	08000167 	j	8000059c <endgetOrientation>
80000548:	20130005 	addi	s3,zero,5

8000054c <setorient180>:
C:\Users\RampantVelcro\Desktop\Class\Fall2018\ECE540\ECE540Project1\Software/main.S:356
8000054c:	201000b4 	addi	s0,zero,180
C:\Users\RampantVelcro\Desktop\Class\Fall2018\ECE540\ECE540Project1\Software/main.S:357
80000550:	20110001 	addi	s1,zero,1
C:\Users\RampantVelcro\Desktop\Class\Fall2018\ECE540\ECE540Project1\Software/main.S:358
80000554:	20120008 	addi	s2,zero,8
C:\Users\RampantVelcro\Desktop\Class\Fall2018\ECE540\ECE540Project1\Software/main.S:360
80000558:	08000167 	j	8000059c <endgetOrientation>
8000055c:	20130000 	addi	s3,zero,0

80000560 <setorient225>:
C:\Users\RampantVelcro\Desktop\Class\Fall2018\ECE540\ECE540Project1\Software/main.S:363
80000560:	201000e1 	addi	s0,zero,225
C:\Users\RampantVelcro\Desktop\Class\Fall2018\ECE540\ECE540Project1\Software/main.S:364
80000564:	20110002 	addi	s1,zero,2
C:\Users\RampantVelcro\Desktop\Class\Fall2018\ECE540\ECE540Project1\Software/main.S:365
80000568:	20120002 	addi	s2,zero,2
C:\Users\RampantVelcro\Desktop\Class\Fall2018\ECE540\ECE540Project1\Software/main.S:367
8000056c:	08000167 	j	8000059c <endgetOrientation>
80000570:	20130005 	addi	s3,zero,5

80000574 <setorient270>:
C:\Users\RampantVelcro\Desktop\Class\Fall2018\ECE540\ECE540Project1\Software/main.S:370
80000574:	2010010e 	addi	s0,zero,270
C:\Users\RampantVelcro\Desktop\Class\Fall2018\ECE540\ECE540Project1\Software/main.S:371
80000578:	20110002 	addi	s1,zero,2
C:\Users\RampantVelcro\Desktop\Class\Fall2018\ECE540\ECE540Project1\Software/main.S:372
8000057c:	20120007 	addi	s2,zero,7
C:\Users\RampantVelcro\Desktop\Class\Fall2018\ECE540\ECE540Project1\Software/main.S:374
80000580:	08000167 	j	8000059c <endgetOrientation>
80000584:	20130000 	addi	s3,zero,0

80000588 <setorient315>:
C:\Users\RampantVelcro\Desktop\Class\Fall2018\ECE540\ECE540Project1\Software/main.S:377
80000588:	2010013b 	addi	s0,zero,315
C:\Users\RampantVelcro\Desktop\Class\Fall2018\ECE540\ECE540Project1\Software/main.S:378
8000058c:	20110003 	addi	s1,zero,3
C:\Users\RampantVelcro\Desktop\Class\Fall2018\ECE540\ECE540Project1\Software/main.S:379
80000590:	20120001 	addi	s2,zero,1
C:\Users\RampantVelcro\Desktop\Class\Fall2018\ECE540\ECE540Project1\Software/main.S:381
80000594:	08000167 	j	8000059c <endgetOrientation>
80000598:	20130005 	addi	s3,zero,5

8000059c <endgetOrientation>:
C:\Users\RampantVelcro\Desktop\Class\Fall2018\ECE540\ECE540Project1\Software/main.S:384
8000059c:	03e00008 	jr	ra
800005a0:	00000000 	nop

800005a4 <displayOrientation>:
C:\Users\RampantVelcro\Desktop\Class\Fall2018\ECE540\ECE540Project1\Software/main.S:391
800005a4:	0220b020 	add	s6,s1,zero
C:\Users\RampantVelcro\Desktop\Class\Fall2018\ECE540\ECE540Project1\Software/main.S:392
800005a8:	0016b400 	sll	s6,s6,0x10
C:\Users\RampantVelcro\Desktop\Class\Fall2018\ECE540\ECE540Project1\Software/main.S:393
800005ac:	00166820 	add	t5,zero,s6
C:\Users\RampantVelcro\Desktop\Class\Fall2018\ECE540\ECE540Project1\Software/main.S:395
800005b0:	0240b020 	add	s6,s2,zero
C:\Users\RampantVelcro\Desktop\Class\Fall2018\ECE540\ECE540Project1\Software/main.S:396
800005b4:	0016b200 	sll	s6,s6,0x8
C:\Users\RampantVelcro\Desktop\Class\Fall2018\ECE540\ECE540Project1\Software/main.S:397
800005b8:	01b66820 	add	t5,t5,s6
C:\Users\RampantVelcro\Desktop\Class\Fall2018\ECE540\ECE540Project1\Software/main.S:399
800005bc:	0260b020 	add	s6,s3,zero
C:\Users\RampantVelcro\Desktop\Class\Fall2018\ECE540\ECE540Project1\Software/main.S:401
800005c0:	01b66820 	add	t5,t5,s6
C:\Users\RampantVelcro\Desktop\Class\Fall2018\ECE540\ECE540Project1\Software/main.S:405
800005c4:	03e00008 	jr	ra
800005c8:	aced0000 	sw	t5,0(a3)

800005cc <getBotInfoandDisplay>:
C:\Users\RampantVelcro\Desktop\Class\Fall2018\ECE540\ECE540Project1\Software/main.S:412
800005cc:	001fc820 	add	t9,zero,ra
C:\Users\RampantVelcro\Desktop\Class\Fall2018\ECE540\ECE540Project1\Software/main.S:414
800005d0:	8d570000 	lw	s7,0(t2)
C:\Users\RampantVelcro\Desktop\Class\Fall2018\ECE540\ECE540Project1\Software/main.S:417
800005d4:	0c000126 	jal	80000498 <getOrientation>
800005d8:	32f40007 	andi	s4,s7,0x7
C:\Users\RampantVelcro\Desktop\Class\Fall2018\ECE540\ECE540Project1\Software/main.S:418
800005dc:	0c000169 	jal	800005a4 <displayOrientation>
800005e0:	00000000 	nop
C:\Users\RampantVelcro\Desktop\Class\Fall2018\ECE540\ECE540Project1\Software/main.S:420
800005e4:	0019f820 	add	ra,zero,t9
C:\Users\RampantVelcro\Desktop\Class\Fall2018\ECE540\ECE540Project1\Software/main.S:421
800005e8:	03e00008 	jr	ra
800005ec:	00000000 	nop

Disassembly of section .debug_aranges:

00000000 <.debug_aranges>:
   0:	0000001c 	0x1c
   4:	00000002 	srl	zero,zero,0x0
   8:	00040000 	sll	zero,a0,0x0
   c:	00000000 	nop
  10:	9fc00144 	0x9fc00144
  14:	0000006c 	0x6c
	...
  20:	0000001c 	0x1c
  24:	00640002 	0x640002
  28:	00040000 	sll	zero,a0,0x0
  2c:	00000000 	nop
  30:	9fc00000 	0x9fc00000
  34:	00000144 	0x144
	...
  40:	0000001c 	0x1c
  44:	00c80002 	0xc80002
  48:	00040000 	sll	zero,a0,0x0
  4c:	00000000 	nop
  50:	80000000 	lb	zero,0(zero)
  54:	00000198 	0x198
	...
  60:	0000001c 	0x1c
  64:	01320002 	0x1320002
  68:	00040000 	sll	zero,a0,0x0
  6c:	00000000 	nop
  70:	80000200 	lb	zero,512(zero)
  74:	00000004 	sllv	zero,zero,zero
	...
  80:	0000001c 	0x1c
  84:	01970002 	0x1970002
  88:	00040000 	sll	zero,a0,0x0
  8c:	00000000 	nop
  90:	80000204 	lb	zero,516(zero)
  94:	000003ec 	0x3ec
	...

Disassembly of section .debug_info:

00000000 <.debug_info>:
   0:	00000060 	0x60
   4:	00000002 	srl	zero,zero,0x0
   8:	01040000 	0x1040000
   c:	00000000 	nop
  10:	9fc00144 	0x9fc00144
  14:	9fc001b0 	0x9fc001b0
  18:	30747263 	andi	s4,v1,0x7263
  1c:	4300532e 	c0	0x100532e
  20:	73555c3a 	0x73555c3a
  24:	5c737265 	0x5c737265
  28:	706d6152 	udi2	v1,t5,t4,0x5
  2c:	56746e61 	bnel	s3,s4,1b9b4 <BLACKLINE_MSK+0x1b2b4>
  30:	72636c65 	s8sdi	xr1,s3,-37,ptn0
  34:	65445c6f 	0x65445c6f
  38:	6f746b73 	0x6f746b73
  3c:	6f535c70 	0x6f535c70
  40:	6f725063 	0x6f725063
  44:	7463656a 	jalx	18d95a8 <LOC_Y_MSK+0x8e95a8>
  48:	6f735c31 	0x6f735c31
  4c:	61777466 	0x61777466
  50:	47006572 	bz.b	$w0,1961c <BLACKLINE_MSK+0x18f1c>
  54:	4120554e 	0x4120554e
  58:	2e322053 	sltiu	s2,s1,8275
  5c:	392e3432 	xori	t6,t1,0x3432
  60:	80010030 	lb	at,48(zero)
  64:	00000060 	0x60
  68:	00140002 	srl	zero,s4,0x0
  6c:	01040000 	0x1040000
  70:	00000048 	0x48
  74:	9fc00000 	0x9fc00000
  78:	9fc00144 	0x9fc00144
  7c:	746f6f62 	jalx	1bdbd88 <LOC_Y_MSK+0xbebd88>
  80:	4300532e 	c0	0x100532e
  84:	73555c3a 	0x73555c3a
  88:	5c737265 	0x5c737265
  8c:	706d6152 	udi2	v1,t5,t4,0x5
  90:	56746e61 	bnel	s3,s4,1ba18 <BLACKLINE_MSK+0x1b318>
  94:	72636c65 	s8sdi	xr1,s3,-37,ptn0
  98:	65445c6f 	0x65445c6f
  9c:	6f746b73 	0x6f746b73
  a0:	6f535c70 	0x6f535c70
  a4:	6f725063 	0x6f725063
  a8:	7463656a 	jalx	18d95a8 <LOC_Y_MSK+0x8e95a8>
  ac:	6f735c31 	0x6f735c31
  b0:	61777466 	0x61777466
  b4:	47006572 	bz.b	$w0,19680 <BLACKLINE_MSK+0x18f80>
  b8:	4120554e 	0x4120554e
  bc:	2e322053 	sltiu	s2,s1,8275
  c0:	392e3432 	xori	t6,t1,0x3432
  c4:	80010030 	lb	at,48(zero)
  c8:	00000066 	0x66
  cc:	00280002 	ror	zero,t0,0x0
  d0:	01040000 	0x1040000
  d4:	000000ce 	0xce
  d8:	80000000 	lb	zero,0(zero)
  dc:	80000198 	lb	zero,408(zero)
  e0:	65637865 	0x65637865
  e4:	6f697470 	0x6f697470
  e8:	532e736e 	beql	t9,t6,1cea4 <BLACKLINE_MSK+0x1c7a4>
  ec:	5c3a4300 	0x5c3a4300
  f0:	72657355 	s32sdi	xr13,s3,1392
  f4:	61525c73 	0x61525c73
  f8:	6e61706d 	0x6e61706d
  fc:	6c655674 	0x6c655674
 100:	5c6f7263 	0x5c6f7263
 104:	6b736544 	0x6b736544
 108:	5c706f74 	0x5c706f74
 10c:	50636f53 	beql	v1,v1,1be5c <BLACKLINE_MSK+0x1b75c>
 110:	656a6f72 	0x656a6f72
 114:	5c317463 	0x5c317463
 118:	74666f73 	jalx	199bdcc <LOC_Y_MSK+0x9abdcc>
 11c:	65726177 	0x65726177
 120:	554e4700 	bnel	t2,t6,11d24 <BLACKLINE_MSK+0x11624>
 124:	20534120 	addi	s3,v0,16672
 128:	34322e32 	ori	s2,at,0x2e32
 12c:	0030392e 	0x30392e
 130:	00618001 	movt	s0,v1,$fcc0
 134:	00020000 	sll	zero,v0,0x0
 138:	0000003c 	0x3c
 13c:	011b0104 	0x11b0104
 140:	02000000 	0x2000000
 144:	02048000 	0x2048000
 148:	75648000 	jalx	5920000 <LOC_Y_MSK+0x4930000>
 14c:	2e796d6d 	sltiu	t9,s3,28013
 150:	3a430053 	xori	v1,s2,0x53
 154:	6573555c 	0x6573555c
 158:	525c7372 	beql	s2,gp,1cf24 <BLACKLINE_MSK+0x1c824>
 15c:	61706d61 	0x61706d61
 160:	6556746e 	0x6556746e
 164:	6f72636c 	0x6f72636c
 168:	7365445c 	udi12	k1,a1,t0,0x11
 16c:	706f746b 	s16std	xr1,v1,-70,ptn1
 170:	636f535c 	0x636f535c
 174:	6a6f7250 	0x6a6f7250
 178:	31746365 	andi	s4,t3,0x6365
 17c:	666f735c 	0x666f735c
 180:	72617774 	q16sll	xr13,xr13,xr5,xr8,9
 184:	4e470065 	c3	0x470065
 188:	53412055 	beql	k0,at,82e0 <BLACKLINE_MSK+0x7be0>
 18c:	322e3220 	andi	t6,s1,0x3220
 190:	30392e34 	andi	t9,at,0x2e34
 194:	79800100 	ori.b	$w4,$w0,0x80
 198:	02000000 	0x2000000
 19c:	00005000 	sll	t2,zero,0x0
 1a0:	52010400 	beql	s0,at,11a4 <BLACKLINE_MSK+0xaa4>
 1a4:	04000001 	bltz	zero,1ac <FORWARD_CNT+0x179>
 1a8:	f0800002 	0xf0800002
 1ac:	6d800005 	0x6d800005
 1b0:	2e6e6961 	sltiu	t6,s3,26977
 1b4:	3a430053 	xori	v1,s2,0x53
 1b8:	6573555c 	0x6573555c
 1bc:	525c7372 	beql	s2,gp,1cf88 <BLACKLINE_MSK+0x1c888>
 1c0:	61706d61 	0x61706d61
 1c4:	6556746e 	0x6556746e
 1c8:	6f72636c 	0x6f72636c
 1cc:	7365445c 	udi12	k1,a1,t0,0x11
 1d0:	706f746b 	s16std	xr1,v1,-70,ptn1
 1d4:	616c435c 	0x616c435c
 1d8:	465c7373 	c1	0x5c7373
 1dc:	326c6c61 	andi	t4,s3,0x6c61
 1e0:	5c383130 	0x5c383130
 1e4:	35454345 	ori	a1,t2,0x4345
 1e8:	455c3034 	bc1any4f	$fcc7,c2bc <BLACKLINE_MSK+0xbbbc>
 1ec:	34354543 	ori	s5,at,0x4543
 1f0:	6f725030 	0x6f725030
 1f4:	7463656a 	jalx	18d95a8 <LOC_Y_MSK+0x8e95a8>
 1f8:	6f535c31 	0x6f535c31
 1fc:	61777466 	0x61777466
 200:	47006572 	bz.b	$w0,197cc <BLACKLINE_MSK+0x190cc>
 204:	4120554e 	0x4120554e
 208:	2e322053 	sltiu	s2,s1,8275
 20c:	392e3432 	xori	t6,t1,0x3432
 210:	80010030 	lb	at,48(zero)

Disassembly of section .debug_abbrev:

00000000 <.debug_abbrev>:
   0:	10001101 	b	4408 <BLACKLINE_MSK+0x3d08>
   4:	12011106 	beq	s0,at,4420 <BLACKLINE_MSK+0x3d20>
   8:	1b080301 	0x1b080301
   c:	13082508 	beq	t8,t0,9430 <BLACKLINE_MSK+0x8d30>
  10:	00000005 	lsa	zero,zero,zero,0x1
  14:	10001101 	b	441c <BLACKLINE_MSK+0x3d1c>
  18:	12011106 	beq	s0,at,4434 <BLACKLINE_MSK+0x3d34>
  1c:	1b080301 	0x1b080301
  20:	13082508 	beq	t8,t0,9444 <BLACKLINE_MSK+0x8d44>
  24:	00000005 	lsa	zero,zero,zero,0x1
  28:	10001101 	b	4430 <BLACKLINE_MSK+0x3d30>
  2c:	12011106 	beq	s0,at,4448 <BLACKLINE_MSK+0x3d48>
  30:	1b080301 	0x1b080301
  34:	13082508 	beq	t8,t0,9458 <BLACKLINE_MSK+0x8d58>
  38:	00000005 	lsa	zero,zero,zero,0x1
  3c:	10001101 	b	4444 <BLACKLINE_MSK+0x3d44>
  40:	12011106 	beq	s0,at,445c <BLACKLINE_MSK+0x3d5c>
  44:	1b080301 	0x1b080301
  48:	13082508 	beq	t8,t0,946c <BLACKLINE_MSK+0x8d6c>
  4c:	00000005 	lsa	zero,zero,zero,0x1
  50:	10001101 	b	4458 <BLACKLINE_MSK+0x3d58>
  54:	12011106 	beq	s0,at,4470 <BLACKLINE_MSK+0x3d70>
  58:	1b080301 	0x1b080301
  5c:	13082508 	beq	t8,t0,9480 <BLACKLINE_MSK+0x8d80>
  60:	00000005 	lsa	zero,zero,zero,0x1

Disassembly of section .debug_line:

00000000 <.debug_line>:
   0:	00000044 	0x44
   4:	001d0002 	srl	zero,sp,0x0
   8:	01010000 	0x1010000
   c:	000d0efb 	0xd0efb
  10:	01010101 	0x1010101
  14:	01000000 	0x1000000
  18:	00010000 	sll	zero,at,0x0
  1c:	30747263 	andi	s4,v1,0x7263
  20:	0000532e 	0x532e
  24:	00000000 	nop
  28:	01440205 	0x1440205
  2c:	0f039fc0 	jal	c0e7f00 <LOC_Y_MSK+0xb0f7f00>
  30:	84844c01 	lh	a0,19457(a0)
  34:	4b848383 	c2	0x1848383
  38:	4e4c8513 	c3	0x4c8513
  3c:	4d4b4b4b 	0x4d4b4b4b
  40:	024b8583 	0x24b8583
  44:	01010008 	0x1010008
  48:	00000082 	srl	zero,zero,0x2
  4c:	001d0002 	srl	zero,sp,0x0
  50:	01010000 	0x1010000
  54:	000d0efb 	0xd0efb
  58:	01010101 	0x1010101
  5c:	01000000 	0x1000000
  60:	00010000 	sll	zero,at,0x0
  64:	746f6f62 	jalx	1bdbd88 <LOC_Y_MSK+0xbebd88>
  68:	0000532e 	0x532e
  6c:	00000000 	nop
  70:	00000205 	0x205
  74:	13039fc0 	beq	t8,v1,fffe7f78 <LOC_X_MSK+0xfe7f78>
  78:	4d835101 	0x4d835101
  7c:	4a0a034d 	c2	0xa034d
  80:	4d4b4b4b 	0x4d4b4b4b
  84:	4b4b4b4b 	c2	0x14b4b4b
  88:	4b4d4b4b 	c2	0x14d4b4b
  8c:	4c4b4b4b 	0x4c4b4b4b
  90:	4b4b514b 	c2	0x14b514b
  94:	4c4b4c4b 	0x4c4b4c4b
  98:	4b4c4b4b 	c2	0x14c4b4b
  9c:	4b4c4b4b 	c2	0x14c4b4b
  a0:	4b4b4b4f 	c2	0x14b4b4f
  a4:	4b4a0c03 	c2	0x14a0c03
  a8:	834c4b4b 	lb	t4,19275(k0)
  ac:	4b4b504b 	c2	0x14b504b
  b0:	4c4b4c4b 	0x4c4b4c4b
  b4:	4b4c4b4b 	c2	0x14c4b4b
  b8:	4b4c4b4b 	c2	0x14c4b4b
  bc:	4b4b4f4b 	c2	0x14b4f4b
  c0:	4c834f4b 	0x4c834f4b
  c4:	504e4b83 	beql	v0,t6,12ed4 <BLACKLINE_MSK+0x127d4>
  c8:	0004024b 	0x4024b
  cc:	00490101 	0x490101
  d0:	00020000 	sll	zero,v0,0x0
  d4:	00000023 	negu	zero,zero
  d8:	0efb0101 	jal	bec0404 <LOC_Y_MSK+0xaed0404>
  dc:	0101000d 	break	0x101
  e0:	00000101 	0x101
  e4:	00000100 	sll	zero,zero,0x4
  e8:	78650001 	bmnzi.b	$w0,$w0,0x65
  ec:	74706563 	jalx	1c1958c <LOC_Y_MSK+0xc2958c>
  f0:	736e6f69 	0x736e6f69
  f4:	0000532e 	0x532e
  f8:	00000000 	nop
  fc:	00000205 	0x205
 100:	2c038000 	sltiu	v1,zero,-32768
 104:	02838301 	0x2838301
 108:	83831770 	lb	v1,6000(gp)
 10c:	83177002 	lb	s7,28674(t8)
 110:	17700283 	bne	k1,s0,b20 <BLACKLINE_MSK+0x420>
 114:	08028383 	j	a0e0c <__memory_size+0x8160c>
 118:	33010100 	andi	at,t8,0x100
 11c:	02000000 	0x2000000
 120:	00001e00 	sll	v1,zero,0x18
 124:	fb010100 	sdc2	$1,256(t8)
 128:	01000d0e 	0x1000d0e
 12c:	00010101 	0x10101
 130:	00010000 	sll	zero,at,0x0
 134:	64000100 	0x64000100
 138:	796d6d75 	0x796d6d75
 13c:	0000532e 	0x532e
 140:	00000000 	nop
 144:	02000205 	0x2000205
 148:	3a038000 	xori	v1,s0,0x8000
 14c:	00040201 	0x40201
 150:	00e80101 	0xe80101
 154:	00020000 	sll	zero,v0,0x0
 158:	0000001d 	0x1d
 15c:	0efb0101 	jal	bec0404 <LOC_Y_MSK+0xaed0404>
 160:	0101000d 	break	0x101
 164:	00000101 	0x101
 168:	00000100 	sll	zero,zero,0x4
 16c:	616d0001 	0x616d0001
 170:	532e6e69 	beql	t9,t6,1bb18 <BLACKLINE_MSK+0x1b418>
 174:	00000000 	nop
 178:	02050000 	0x2050000
 17c:	80000204 	lb	zero,516(zero)
 180:	0100c903 	0x100c903
 184:	834b4b4b 	lb	t3,19275(k0)
 188:	83838383 	lb	v1,-31869(gp)
 18c:	4b4b4b83 	c2	0x14b4b83
 190:	4b4c504b 	c2	0x14c504b
 194:	83144b4c 	lb	s4,19276(t8)
 198:	4d834d86 	0x4d834d86
 19c:	8784184b 	lh	a0,6219(gp)
 1a0:	bbbbbb83 	swr	k1,-17533(sp)
 1a4:	4d4b87bb 	0x4d4b87bb
 1a8:	4e4b8784 	c3	0x4b8784
 1ac:	8486bc4c 	lh	a2,-17332(a0)
 1b0:	8486bc86 	lh	a2,-17274(a0)
 1b4:	844d4b86 	lh	t5,19334(v0)
 1b8:	4d4b8787 	0x4d4b8787
 1bc:	4b4b8783 	c2	0x14b8783
 1c0:	844c4b4b 	lh	t4,19275(v0)
 1c4:	4b4b4b86 	c2	0x14b4b86
 1c8:	1386844c 	beq	gp,a2,fffe12fc <LOC_X_MSK+0xfe12fc>
 1cc:	13861386 	beq	gp,a2,4fe8 <BLACKLINE_MSK+0x48e8>
 1d0:	13861386 	beq	gp,a2,4fec <BLACKLINE_MSK+0x48ec>
 1d4:	bbbb8386 	swr	k1,-31866(sp)
 1d8:	4b87bbbb 	c2	0x187bbbb
 1dc:	4b85144b 	c2	0x185144b
 1e0:	144b8514 	bne	v0,t3,fffe1634 <LOC_X_MSK+0xfe1634>
 1e4:	85144b85 	lh	s4,19333(t0)
 1e8:	4b4b4b4d 	c2	0x14b4b4d
 1ec:	4b4b4b4b 	c2	0x14b4b4b
 1f0:	85144b4c 	lh	s4,19276(t0)
 1f4:	838a144b 	lb	t2,5195(gp)
 1f8:	bbbbbbbb 	swr	k1,-17477(sp)
 1fc:	85bbbbbb 	lh	k1,-17477(t5)
 200:	134b4b4b 	beq	k0,t3,12f30 <BLACKLINE_MSK+0x12830>
 204:	4b4b4b85 	c2	0x14b4b85
 208:	4b4b8513 	c2	0x14b8513
 20c:	4b85134b 	c2	0x185134b
 210:	85134b4b 	lh	s3,19275(t0)
 214:	134b4b4b 	beq	k0,t3,12f44 <BLACKLINE_MSK+0x12844>
 218:	4b4b4b85 	c2	0x14b4b85
 21c:	4b4b8513 	c2	0x14b8513
 220:	4b85134b 	c2	0x185134b
 224:	85134b4b 	lh	s3,19275(t0)
 228:	4c4b4b89 	0x4c4b4b89
 22c:	4c4c4b4b 	0x4c4c4b4b
 230:	4c89144c 	0x4c89144c
 234:	8483134c 	lh	v1,4940(a0)
 238:	0008024b 	0x8024b
 23c:	Address 0x000000000000023c is out of bounds.


Disassembly of section .pdr:

00000000 <.pdr>:
   0:	9fc00144 	0x9fc00144
	...
  20:	9fc00000 	0x9fc00000
	...
  40:	80000000 	lb	zero,0(zero)
	...
  60:	80000200 	lb	zero,512(zero)
	...
  80:	80000200 	lb	zero,512(zero)
	...
  a0:	80000200 	lb	zero,512(zero)
	...
  c0:	80000200 	lb	zero,512(zero)
	...
  e0:	80000200 	lb	zero,512(zero)
	...

Disassembly of section .gnu.attributes:

00000000 <.gnu.attributes>:
   0:	00000f41 	0xf41
   4:	756e6700 	jalx	5b99c00 <LOC_Y_MSK+0x4ba9c00>
   8:	00070100 	sll	zero,a3,0x4
   c:	03040000 	0x3040000
